target datalayout = "e-m:e-p270:32:32-p271:32:32-p272:64:64-i64:64-i128:128-f80:128-n8:16:32:64-S128"
target triple = "x86_64-pc-linux-gnu"

%struct.arguments = type { ptr, ptr, ptr }

; Function Attrs: nounwind uwtable
define dso_local void @remove_variable_from_list(ptr noundef %0, ptr noundef %1) #0 {
  %3 = alloca ptr, align 8
  %4 = alloca ptr, align 8
  %5 = alloca ptr, align 8
  %6 = alloca ptr, align 8
  %7 = alloca i8, align 1
  store ptr %0, ptr %3, align 8
  store ptr %1, ptr %4, align 8
  call void @llvm.lifetime.start.p0(i64 8, ptr %5) #7
  call void @llvm.lifetime.start.p0(i64 8, ptr %6) #7
  store ptr null, ptr %6, align 8
  call void @llvm.lifetime.start.p0(i64 1, ptr %7) #7
  store i8 0, ptr %7, align 1
  %8 = load ptr, ptr %3, align 8
  %9 = load ptr, ptr %8, align 8
  store ptr %9, ptr %5, align 8
  br label %10

10:                                               ; preds = %22, %2
  %11 = load ptr, ptr %5, align 8
  %12 = icmp ne ptr %11, null
  br i1 %12, label %13, label %26

13:                                               ; preds = %10
  %14 = load ptr, ptr %5, align 8
  %15 = getelementptr inbounds nuw %struct.arguments, ptr %14, i32 0, i32 0
  %16 = load ptr, ptr %15, align 8
  %17 = load ptr, ptr %4, align 8
  %18 = icmp eq ptr %16, %17
  br i1 %18, label %19, label %20

19:                                               ; preds = %13
  store i8 1, ptr %7, align 1
  br label %26

20:                                               ; preds = %13
  %21 = load ptr, ptr %5, align 8
  store ptr %21, ptr %6, align 8
  br label %22

22:                                               ; preds = %20
  %23 = load ptr, ptr %5, align 8
  %24 = getelementptr inbounds nuw %struct.arguments, ptr %23, i32 0, i32 2
  %25 = load ptr, ptr %24, align 8
  store ptr %25, ptr %5, align 8
  br label %10, !llvm.loop !15

26:                                               ; preds = %19, %10
  %27 = load i8, ptr %7, align 1, !range !16, !noundef !17
  %28 = trunc i8 %27 to i1
  br i1 %28, label %29, label %45

29:                                               ; preds = %26
  %30 = load ptr, ptr %6, align 8
  %31 = icmp ne ptr %30, null
  br i1 %31, label %32, label %38

32:                                               ; preds = %29
  %33 = load ptr, ptr %5, align 8
  %34 = getelementptr inbounds nuw %struct.arguments, ptr %33, i32 0, i32 2
  %35 = load ptr, ptr %34, align 8
  %36 = load ptr, ptr %6, align 8
  %37 = getelementptr inbounds nuw %struct.arguments, ptr %36, i32 0, i32 2
  store ptr %35, ptr %37, align 8
  br label %43

38:                                               ; preds = %29
  %39 = load ptr, ptr %5, align 8
  %40 = getelementptr inbounds nuw %struct.arguments, ptr %39, i32 0, i32 2
  %41 = load ptr, ptr %40, align 8
  %42 = load ptr, ptr %3, align 8
  store ptr %41, ptr %42, align 8
  br label %43

43:                                               ; preds = %38, %32
  %44 = load ptr, ptr %5, align 8
  call void @free(ptr noundef %44) #7
  br label %45

45:                                               ; preds = %43, %26
  call void @llvm.lifetime.end.p0(i64 1, ptr %7) #7
  call void @llvm.lifetime.end.p0(i64 8, ptr %6) #7
  call void @llvm.lifetime.end.p0(i64 8, ptr %5) #7
  ret void
}