; Function Attrs: nounwind uwtable
define dso_local void @remove_variable_from_list(ptr noundef captures(none) %0, ptr noundef readnone captures(address) %1) local_unnamed_addr #0 {
  %.01316 = load ptr, ptr %0, align 8
  %.not.not17 = icmp eq ptr %.01316, null
  br i1 %.not.not17, label %.critedge, label %.lr.ph.preheader

.lr.ph.preheader:                                 ; preds = %2
  %3 = load ptr, ptr %.01316, align 8
  %4 = icmp eq ptr %3, %1
  br i1 %4, label %.lr.ph._crit_edge, label %.lr.ph27

.lr.ph:                                           ; preds = %.lr.ph27
  %5 = load ptr, ptr %.013, align 8
  %6 = icmp eq ptr %5, %1
  br i1 %6, label %.lr.ph._crit_edge, label %.lr.ph27, !llvm.loop !15

.lr.ph27:                                         ; preds = %.lr.ph.preheader, %.lr.ph
  %.0131926 = phi ptr [ %.013, %.lr.ph ], [ %.01316, %.lr.ph.preheader ]
  %7 = getelementptr inbounds nuw i8, ptr %.0131926, i64 16
  %.013 = load ptr, ptr %7, align 8
  %.not.not = icmp eq ptr %.013, null
  br i1 %.not.not, label %.critedge, label %.lr.ph, !llvm.loop !15

.lr.ph._crit_edge:                                ; preds = %.lr.ph, %.lr.ph.preheader
  %.01319.lcssa = phi ptr [ %.01316, %.lr.ph.preheader ], [ %.013, %.lr.ph ]
  %.01218.lcssa = phi ptr [ null, %.lr.ph.preheader ], [ %.0131926, %.lr.ph ]
  %.not = icmp eq ptr %.01218.lcssa, null
  %8 = getelementptr inbounds nuw i8, ptr %.01319.lcssa, i64 16
  %9 = load ptr, ptr %8, align 8
  br i1 %.not, label %12, label %10

10:                                               ; preds = %.lr.ph._crit_edge
  %11 = getelementptr inbounds nuw i8, ptr %.01218.lcssa, i64 16
  store ptr %9, ptr %11, align 8
  br label %13

12:                                               ; preds = %.lr.ph._crit_edge
  store ptr %9, ptr %0, align 8
  br label %13

13:                                               ; preds = %12, %10
  tail call void @free(ptr noundef nonnull %.01319.lcssa) #6
  br label %.critedge

.critedge:                                        ; preds = %.lr.ph27, %2, %13
  ret void
}